target datalayout = "e-m:e-p270:32:32-p271:32:32-p272:64:64-i64:64-i128:128-f80:128-n8:16:32:64-S128"
target triple = "x86_64-pc-linux-gnu"

%"class.std::__cxx11::list" = type { %"class.std::__cxx11::_List_base" }
%"class.std::__cxx11::_List_base" = type { %"struct.std::__cxx11::_List_base<FileFormat, std::allocator<FileFormat>>::_List_impl" }
%"struct.std::__cxx11::_List_base<FileFormat, std::allocator<FileFormat>>::_List_impl" = type { %"struct.std::__detail::_List_node_header" }
%"struct.std::__detail::_List_node_header" = type { %"struct.std::__detail::_List_node_base", i64 }
%"struct.std::__detail::_List_node_base" = type { ptr, ptr }
%"class.std::allocator.16" = type { i8 }
%"struct.std::_List_iterator" = type { ptr }
%"struct.std::_List_node" = type { %"struct.std::__detail::_List_node_base", %"struct.__gnu_cxx::__aligned_membuf.24" }
%"struct.__gnu_cxx::__aligned_membuf.24" = type { [16 x i8] }
%"struct.std::_List_const_iterator" = type { ptr }

@_ZL21exportImageFormatListB5cxx11 = internal global %"class.std::__cxx11::list" zeroinitializer, align 8

; Function Attrs: mustprogress nounwind uwtable
define linkonce_odr noundef ptr @_ZNK9__gnu_cxx16__aligned_membufI10FileFormatE7_M_addrEv(ptr noundef nonnull align 8 dereferenceable(16) %0) #4 comdat align 2 {
  %2 = alloca ptr, align 8
  store ptr %0, ptr %2, align 8
  %3 = load ptr, ptr %2, align 8
  %4 = getelementptr inbounds %"struct.__gnu_cxx::__aligned_membuf.24", ptr %3, i32 0, i32 0
  ret ptr %4
}

; Function Attrs: mustprogress nounwind uwtable
define linkonce_odr void @_ZNSt7__cxx1110_List_baseI10FileFormatSaIS1_EE11_M_inc_sizeEm(ptr noundef nonnull align 8 dereferenceable(24) %0, i64 noundef %1) #4 comdat align 2 {
  %3 = alloca ptr, align 8
  %4 = alloca i64, align 8
  store ptr %0, ptr %3, align 8
  store i64 %1, ptr %4, align 8
  %5 = load ptr, ptr %3, align 8
  %6 = load i64, ptr %4, align 8
  %7 = getelementptr inbounds %"class.std::__cxx11::_List_base", ptr %5, i32 0, i32 0
  %8 = getelementptr inbounds %"struct.std::__cxx11::_List_base<FileFormat, std::allocator<FileFormat>>::_List_impl", ptr %7, i32 0, i32 0
  %9 = getelementptr inbounds %"struct.std::__detail::_List_node_header", ptr %8, i32 0, i32 1
  %10 = load i64, ptr %9, align 8
  %11 = add i64 %10, %6
  store i64 %11, ptr %9, align 8
  ret void
}

; Function Attrs: mustprogress nounwind uwtable
define linkonce_odr void @_ZNSt14_List_iteratorI10FileFormatEC2EPNSt8__detail15_List_node_baseE(ptr noundef nonnull align 8 dereferenceable(8) %0, ptr noundef %1) unnamed_addr #4 comdat align 2 {
  %3 = alloca ptr, align 8
  %4 = alloca ptr, align 8
  store ptr %0, ptr %3, align 8
  store ptr %1, ptr %4, align 8
  %5 = load ptr, ptr %3, align 8
  %6 = getelementptr inbounds %"struct.std::_List_iterator", ptr %5, i32 0, i32 0
  %7 = load ptr, ptr %4, align 8
  store ptr %7, ptr %6, align 8
  ret void
}

; Function Attrs: mustprogress nounwind uwtable
define linkonce_odr noundef ptr @_ZNK9__gnu_cxx16__aligned_membufI10FileFormatE6_M_ptrEv(ptr noundef nonnull align 8 dereferenceable(16) %0) #4 comdat align 2 {
  %2 = alloca ptr, align 8
  store ptr %0, ptr %2, align 8
  %3 = load ptr, ptr %2, align 8
  %4 = call noundef ptr @_ZNK9__gnu_cxx16__aligned_membufI10FileFormatE7_M_addrEv(ptr noundef nonnull align 8 dereferenceable(16) %3) #3
  ret ptr %4
}

; Function Attrs: mustprogress nounwind uwtable
define linkonce_odr void @_ZNSt8__detail17_List_node_header7_M_initEv(ptr noundef nonnull align 8 dereferenceable(24) %0) #4 comdat align 2 {
  %2 = alloca ptr, align 8
  store ptr %0, ptr %2, align 8
  %3 = load ptr, ptr %2, align 8
  %4 = getelementptr inbounds %"struct.std::__detail::_List_node_base", ptr %3, i32 0, i32 1
  store ptr %3, ptr %4, align 8
  %5 = getelementptr inbounds %"struct.std::__detail::_List_node_base", ptr %3, i32 0, i32 0
  store ptr %3, ptr %5, align 8
  %6 = getelementptr inbounds %"struct.std::__detail::_List_node_header", ptr %3, i32 0, i32 1
  store i64 0, ptr %6, align 8
  ret void
}

; Function Attrs: mustprogress nounwind uwtable
define linkonce_odr void @_ZNSt15__new_allocatorISt10_List_nodeI10FileFormatEEC2ERKS3_(ptr noundef nonnull align 1 dereferenceable(1) %0, ptr noundef nonnull align 1 dereferenceable(1) %1) unnamed_addr #4 comdat align 2 {
  %3 = alloca ptr, align 8
  %4 = alloca ptr, align 8
  store ptr %0, ptr %3, align 8
  store ptr %1, ptr %4, align 8
  ret void
}

; Function Attrs: mustprogress uwtable
define linkonce_odr void @_ZNSt7__cxx114listI10FileFormatSaIS1_EE9_M_insertIJRKS1_EEEvSt14_List_iteratorIS1_EDpOT_(ptr noundef nonnull align 8 dereferenceable(24) %0, ptr %1, ptr noundef nonnull align 8 dereferenceable(16) %2) #5 comdat align 2 {
  %4 = alloca %"struct.std::_List_iterator", align 8
  %5 = alloca ptr, align 8
  %6 = alloca ptr, align 8
  %7 = alloca ptr, align 8
  %8 = getelementptr inbounds %"struct.std::_List_iterator", ptr %4, i32 0, i32 0
  store ptr %1, ptr %8, align 8
  store ptr %0, ptr %5, align 8
  store ptr %2, ptr %6, align 8
  %9 = load ptr, ptr %5, align 8
  %10 = load ptr, ptr %6, align 8
  %11 = call noundef ptr @_ZNSt7__cxx114listI10FileFormatSaIS1_EE14_M_create_nodeIJRKS1_EEEPSt10_List_nodeIS1_EDpOT_(ptr noundef nonnull align 8 dereferenceable(24) %9, ptr noundef nonnull align 8 dereferenceable(16) %10)
  store ptr %11, ptr %7, align 8
  %12 = load ptr, ptr %7, align 8
  %13 = getelementptr inbounds %"struct.std::_List_iterator", ptr %4, i32 0, i32 0
  %14 = load ptr, ptr %13, align 8
  call void @_ZNSt8__detail15_List_node_base7_M_hookEPS0_(ptr noundef nonnull align 8 dereferenceable(16) %12, ptr noundef %14) #3
  call void @_ZNSt7__cxx1110_List_baseI10FileFormatSaIS1_EE11_M_inc_sizeEm(ptr noundef nonnull align 8 dereferenceable(24) %9, i64 noundef 1)
  ret void
}

; Function Attrs: mustprogress nounwind uwtable
define linkonce_odr ptr @_ZNSt7__cxx114listI10FileFormatSaIS1_EE3endEv(ptr noundef nonnull align 8 dereferenceable(24) %0) #4 comdat align 2 {
  %2 = alloca %"struct.std::_List_iterator", align 8
  %3 = alloca ptr, align 8
  store ptr %0, ptr %3, align 8
  %4 = load ptr, ptr %3, align 8
  %5 = getelementptr inbounds %"class.std::__cxx11::_List_base", ptr %4, i32 0, i32 0
  %6 = getelementptr inbounds %"struct.std::__cxx11::_List_base<FileFormat, std::allocator<FileFormat>>::_List_impl", ptr %5, i32 0, i32 0
  call void @_ZNSt14_List_iteratorI10FileFormatEC2EPNSt8__detail15_List_node_baseE(ptr noundef nonnull align 8 dereferenceable(8) %2, ptr noundef %6) #3
  %7 = getelementptr inbounds %"struct.std::_List_iterator", ptr %2, i32 0, i32 0
  %8 = load ptr, ptr %7, align 8
  ret ptr %8
}

; Function Attrs: noreturn nounwind uwtable
define linkonce_odr hidden void @__clang_call_terminate(ptr noundef %0) #9 comdat {
  %2 = call ptr @__cxa_begin_catch(ptr %0) #3
  call void @_ZSt9terminatev() #20
  unreachable
}

; Function Attrs: mustprogress nounwind uwtable
define linkonce_odr noundef ptr @_ZNKSt10_List_nodeI10FileFormatE9_M_valptrEv(ptr noundef nonnull align 8 dereferenceable(32) %0) #4 comdat align 2 {
  %2 = alloca ptr, align 8
  store ptr %0, ptr %2, align 8
  %3 = load ptr, ptr %2, align 8
  %4 = getelementptr inbounds %"struct.std::_List_node", ptr %3, i32 0, i32 1
  %5 = call noundef ptr @_ZNK9__gnu_cxx16__aligned_membufI10FileFormatE6_M_ptrEv(ptr noundef nonnull align 8 dereferenceable(16) %4) #3
  ret ptr %5
}

; Function Attrs: mustprogress nounwind uwtable
define linkonce_odr void @_ZNSt8__detail17_List_node_headerC2Ev(ptr noundef nonnull align 8 dereferenceable(24) %0) unnamed_addr #4 comdat align 2 {
  %2 = alloca ptr, align 8
  store ptr %0, ptr %2, align 8
  %3 = load ptr, ptr %2, align 8
  call void @_ZNSt8__detail17_List_node_header7_M_initEv(ptr noundef nonnull align 8 dereferenceable(24) %3) #3
  ret void
}

; Function Attrs: mustprogress nounwind uwtable
define linkonce_odr void @_ZNSaISt10_List_nodeI10FileFormatEEC2ERKS2_(ptr noundef nonnull align 1 dereferenceable(1) %0, ptr noundef nonnull align 1 dereferenceable(1) %1) unnamed_addr #4 comdat align 2 {
  %3 = alloca ptr, align 8
  %4 = alloca ptr, align 8
  store ptr %0, ptr %3, align 8
  store ptr %1, ptr %4, align 8
  %5 = load ptr, ptr %3, align 8
  %6 = load ptr, ptr %4, align 8
  call void @_ZNSt15__new_allocatorISt10_List_nodeI10FileFormatEEC2ERKS3_(ptr noundef nonnull align 1 dereferenceable(1) %5, ptr noundef nonnull align 1 dereferenceable(1) %6) #3
  ret void
}

; Function Attrs: mustprogress nounwind uwtable
define linkonce_odr noundef nonnull align 8 dereferenceable(8) ptr @_ZNSt20_List_const_iteratorI10FileFormatEppEv(ptr noundef nonnull align 8 dereferenceable(8) %0) #4 comdat align 2 {
  %2 = alloca ptr, align 8
  store ptr %0, ptr %2, align 8
  %3 = load ptr, ptr %2, align 8
  %4 = getelementptr inbounds %"struct.std::_List_const_iterator", ptr %3, i32 0, i32 0
  %5 = load ptr, ptr %4, align 8
  %6 = getelementptr inbounds %"struct.std::__detail::_List_node_base", ptr %5, i32 0, i32 0
  %7 = load ptr, ptr %6, align 8
  %8 = getelementptr inbounds %"struct.std::_List_const_iterator", ptr %3, i32 0, i32 0
  store ptr %7, ptr %8, align 8
  ret ptr %3
}

; Function Attrs: mustprogress uwtable
define linkonce_odr void @_ZNSt7__cxx114listI10FileFormatSaIS1_EE12emplace_backIJRKS1_EEEvDpOT_(ptr noundef nonnull align 8 dereferenceable(24) %0, ptr noundef nonnull align 8 dereferenceable(16) %1) #5 comdat align 2 {
  %3 = alloca ptr, align 8
  %4 = alloca ptr, align 8
  %5 = alloca %"struct.std::_List_iterator", align 8
  store ptr %0, ptr %3, align 8
  store ptr %1, ptr %4, align 8
  %6 = load ptr, ptr %3, align 8
  %7 = call ptr @_ZNSt7__cxx114listI10FileFormatSaIS1_EE3endEv(ptr noundef nonnull align 8 dereferenceable(24) %6) #3
  %8 = getelementptr inbounds %"struct.std::_List_iterator", ptr %5, i32 0, i32 0
  store ptr %7, ptr %8, align 8
  %9 = load ptr, ptr %4, align 8
  %10 = getelementptr inbounds %"struct.std::_List_iterator", ptr %5, i32 0, i32 0
  %11 = load ptr, ptr %10, align 8
  call void @_ZNSt7__cxx114listI10FileFormatSaIS1_EE9_M_insertIJRKS1_EEEvSt14_List_iteratorIS1_EDpOT_(ptr noundef nonnull align 8 dereferenceable(24) %6, ptr %11, ptr noundef nonnull align 8 dereferenceable(16) %9)
  ret void
}

; Function Attrs: mustprogress nounwind uwtable
define linkonce_odr noundef nonnull align 8 dereferenceable(16) ptr @_ZNKSt20_List_const_iteratorI10FileFormatEdeEv(ptr noundef nonnull align 8 dereferenceable(8) %0) #4 comdat align 2 personality ptr @__gxx_personality_v0 {
  %2 = alloca ptr, align 8
  store ptr %0, ptr %2, align 8
  %3 = load ptr, ptr %2, align 8
  %4 = getelementptr inbounds %"struct.std::_List_const_iterator", ptr %3, i32 0, i32 0
  %5 = load ptr, ptr %4, align 8
  %6 = invoke noundef ptr @_ZNKSt10_List_nodeI10FileFormatE9_M_valptrEv(ptr noundef nonnull align 8 dereferenceable(32) %5)
          to label %7 unwind label %8

7:                                                ; preds = %1
  ret ptr %6

8:                                                ; preds = %1
  %9 = landingpad { ptr, i32 }
          catch ptr null
  %10 = extractvalue { ptr, i32 } %9, 0
  call void @__clang_call_terminate(ptr %10) #20
  unreachable
}

; Function Attrs: mustprogress nounwind uwtable
define linkonce_odr noundef zeroext i1 @_ZStneRKSt20_List_const_iteratorI10FileFormatES3_(ptr noundef nonnull align 8 dereferenceable(8) %0, ptr noundef nonnull align 8 dereferenceable(8) %1) #4 comdat {
  %3 = alloca ptr, align 8
  %4 = alloca ptr, align 8
  store ptr %0, ptr %3, align 8
  store ptr %1, ptr %4, align 8
  %5 = load ptr, ptr %3, align 8
  %6 = getelementptr inbounds %"struct.std::_List_const_iterator", ptr %5, i32 0, i32 0
  %7 = load ptr, ptr %6, align 8
  %8 = load ptr, ptr %4, align 8
  %9 = getelementptr inbounds %"struct.std::_List_const_iterator", ptr %8, i32 0, i32 0
  %10 = load ptr, ptr %9, align 8
  %11 = icmp ne ptr %7, %10
  ret i1 %11
}

; Function Attrs: mustprogress nounwind uwtable
define linkonce_odr void @_ZNSt20_List_const_iteratorI10FileFormatEC2EPKNSt8__detail15_List_node_baseE(ptr noundef nonnull align 8 dereferenceable(8) %0, ptr noundef %1) unnamed_addr #4 comdat align 2 {
  %3 = alloca ptr, align 8
  %4 = alloca ptr, align 8
  store ptr %0, ptr %3, align 8
  store ptr %1, ptr %4, align 8
  %5 = load ptr, ptr %3, align 8
  %6 = getelementptr inbounds %"struct.std::_List_const_iterator", ptr %5, i32 0, i32 0
  %7 = load ptr, ptr %4, align 8
  store ptr %7, ptr %6, align 8
  ret void
}

; Function Attrs: mustprogress nounwind uwtable
define linkonce_odr void @_ZNSt15__new_allocatorISt10_List_nodeI10FileFormatEED2Ev(ptr noundef nonnull align 1 dereferenceable(1) %0) unnamed_addr #4 comdat align 2 {
  %2 = alloca ptr, align 8
  store ptr %0, ptr %2, align 8
  ret void
}

; Function Attrs: mustprogress nounwind uwtable
define linkonce_odr void @_ZNSt7__cxx1110_List_baseI10FileFormatSaIS1_EE10_List_implC2EOSaISt10_List_nodeIS1_EE(ptr noundef nonnull align 8 dereferenceable(24) %0, ptr noundef nonnull align 1 dereferenceable(1) %1) unnamed_addr #4 comdat align 2 {
  %3 = alloca ptr, align 8
  %4 = alloca ptr, align 8
  store ptr %0, ptr %3, align 8
  store ptr %1, ptr %4, align 8
  %5 = load ptr, ptr %3, align 8
  %6 = load ptr, ptr %4, align 8
  call void @_ZNSaISt10_List_nodeI10FileFormatEEC2ERKS2_(ptr noundef nonnull align 1 dereferenceable(1) %5, ptr noundef nonnull align 1 dereferenceable(1) %6) #3
  %7 = getelementptr inbounds %"struct.std::__cxx11::_List_base<FileFormat, std::allocator<FileFormat>>::_List_impl", ptr %5, i32 0, i32 0
  call void @_ZNSt8__detail17_List_node_headerC2Ev(ptr noundef nonnull align 8 dereferenceable(24) %7) #3
  ret void
}

; Function Attrs: mustprogress nounwind uwtable
define linkonce_odr void @_ZNSt16allocator_traitsISaISt10_List_nodeI10FileFormatEEE37select_on_container_copy_constructionERKS3_(ptr dead_on_unwind noalias writable sret(%"class.std::allocator.16") align 1 %0, ptr noundef nonnull align 1 dereferenceable(1) %1) #4 comdat align 2 {
  %3 = alloca ptr, align 8
  %4 = alloca ptr, align 8
  store ptr %0, ptr %3, align 8
  store ptr %1, ptr %4, align 8
  %5 = load ptr, ptr %4, align 8
  call void @_ZNSaISt10_List_nodeI10FileFormatEEC2ERKS2_(ptr noundef nonnull align 1 dereferenceable(1) %0, ptr noundef nonnull align 1 dereferenceable(1) %5) #3
  ret void
}

; Function Attrs: mustprogress uwtable
define linkonce_odr void @_ZNSt7__cxx114listI10FileFormatSaIS1_EE22_M_initialize_dispatchISt20_List_const_iteratorIS1_EEEvT_S7_St12__false_type(ptr noundef nonnull align 8 dereferenceable(24) %0, ptr %1, ptr %2) #5 comdat align 2 {
  %4 = alloca %"struct.std::_List_const_iterator", align 8
  %5 = alloca %"struct.std::_List_const_iterator", align 8
  %6 = alloca ptr, align 8
  %7 = getelementptr inbounds %"struct.std::_List_const_iterator", ptr %4, i32 0, i32 0
  store ptr %1, ptr %7, align 8
  %8 = getelementptr inbounds %"struct.std::_List_const_iterator", ptr %5, i32 0, i32 0
  store ptr %2, ptr %8, align 8
  store ptr %0, ptr %6, align 8
  %9 = load ptr, ptr %6, align 8
  br label %10

10:                                               ; preds = %14, %3
  %11 = call noundef zeroext i1 @_ZStneRKSt20_List_const_iteratorI10FileFormatES3_(ptr noundef nonnull align 8 dereferenceable(8) %4, ptr noundef nonnull align 8 dereferenceable(8) %5) #3
  br i1 %11, label %12, label %16

12:                                               ; preds = %10
  %13 = call noundef nonnull align 8 dereferenceable(16) ptr @_ZNKSt20_List_const_iteratorI10FileFormatEdeEv(ptr noundef nonnull align 8 dereferenceable(8) %4) #3
  call void @_ZNSt7__cxx114listI10FileFormatSaIS1_EE12emplace_backIJRKS1_EEEvDpOT_(ptr noundef nonnull align 8 dereferenceable(24) %9, ptr noundef nonnull align 8 dereferenceable(16) %13)
  br label %14

14:                                               ; preds = %12
  %15 = call noundef nonnull align 8 dereferenceable(8) ptr @_ZNSt20_List_const_iteratorI10FileFormatEppEv(ptr noundef nonnull align 8 dereferenceable(8) %4) #3
  br label %10, !llvm.loop !16

16:                                               ; preds = %10
  ret void
}

; Function Attrs: mustprogress nounwind uwtable
define linkonce_odr ptr @_ZNKSt7__cxx114listI10FileFormatSaIS1_EE3endEv(ptr noundef nonnull align 8 dereferenceable(24) %0) #4 comdat align 2 {
  %2 = alloca %"struct.std::_List_const_iterator", align 8
  %3 = alloca ptr, align 8
  store ptr %0, ptr %3, align 8
  %4 = load ptr, ptr %3, align 8
  %5 = getelementptr inbounds %"class.std::__cxx11::_List_base", ptr %4, i32 0, i32 0
  %6 = getelementptr inbounds %"struct.std::__cxx11::_List_base<FileFormat, std::allocator<FileFormat>>::_List_impl", ptr %5, i32 0, i32 0
  call void @_ZNSt20_List_const_iteratorI10FileFormatEC2EPKNSt8__detail15_List_node_baseE(ptr noundef nonnull align 8 dereferenceable(8) %2, ptr noundef %6) #3
  %7 = getelementptr inbounds %"struct.std::_List_const_iterator", ptr %2, i32 0, i32 0
  %8 = load ptr, ptr %7, align 8
  ret ptr %8
}

; Function Attrs: mustprogress nounwind uwtable
define linkonce_odr ptr @_ZNKSt7__cxx114listI10FileFormatSaIS1_EE5beginEv(ptr noundef nonnull align 8 dereferenceable(24) %0) #4 comdat align 2 {
  %2 = alloca %"struct.std::_List_const_iterator", align 8
  %3 = alloca ptr, align 8
  store ptr %0, ptr %3, align 8
  %4 = load ptr, ptr %3, align 8
  %5 = getelementptr inbounds %"class.std::__cxx11::_List_base", ptr %4, i32 0, i32 0
  %6 = getelementptr inbounds %"struct.std::__cxx11::_List_base<FileFormat, std::allocator<FileFormat>>::_List_impl", ptr %5, i32 0, i32 0
  %7 = getelementptr inbounds %"struct.std::__detail::_List_node_base", ptr %6, i32 0, i32 0
  %8 = load ptr, ptr %7, align 8
  call void @_ZNSt20_List_const_iteratorI10FileFormatEC2EPKNSt8__detail15_List_node_baseE(ptr noundef nonnull align 8 dereferenceable(8) %2, ptr noundef %8) #3
  %9 = getelementptr inbounds %"struct.std::_List_const_iterator", ptr %2, i32 0, i32 0
  %10 = load ptr, ptr %9, align 8
  ret ptr %10
}

; Function Attrs: mustprogress nounwind uwtable
define linkonce_odr void @_ZNSaISt10_List_nodeI10FileFormatEED2Ev(ptr noundef nonnull align 1 dereferenceable(1) %0) unnamed_addr #4 comdat align 2 {
  %2 = alloca ptr, align 8
  store ptr %0, ptr %2, align 8
  %3 = load ptr, ptr %2, align 8
  call void @_ZNSt15__new_allocatorISt10_List_nodeI10FileFormatEED2Ev(ptr noundef nonnull align 1 dereferenceable(1) %3) #3
  ret void
}

; Function Attrs: mustprogress nounwind uwtable
define linkonce_odr void @_ZNSt7__cxx1110_List_baseI10FileFormatSaIS1_EEC2EOSaISt10_List_nodeIS1_EE(ptr noundef nonnull align 8 dereferenceable(24) %0, ptr noundef nonnull align 1 dereferenceable(1) %1) unnamed_addr #4 comdat align 2 {
  %3 = alloca ptr, align 8
  %4 = alloca ptr, align 8
  store ptr %0, ptr %3, align 8
  store ptr %1, ptr %4, align 8
  %5 = load ptr, ptr %3, align 8
  %6 = getelementptr inbounds %"class.std::__cxx11::_List_base", ptr %5, i32 0, i32 0
  %7 = load ptr, ptr %4, align 8
  call void @_ZNSt7__cxx1110_List_baseI10FileFormatSaIS1_EE10_List_implC2EOSaISt10_List_nodeIS1_EE(ptr noundef nonnull align 8 dereferenceable(24) %6, ptr noundef nonnull align 1 dereferenceable(1) %7) #3
  ret void
}

; Function Attrs: mustprogress uwtable
define linkonce_odr void @_ZN9__gnu_cxx14__alloc_traitsISaISt10_List_nodeI10FileFormatEES3_E17_S_select_on_copyERKS4_(ptr dead_on_unwind noalias writable sret(%"class.std::allocator.16") align 1 %0, ptr noundef nonnull align 1 dereferenceable(1) %1) #5 comdat align 2 {
  %3 = alloca ptr, align 8
  %4 = alloca ptr, align 8
  store ptr %0, ptr %3, align 8
  store ptr %1, ptr %4, align 8
  %5 = load ptr, ptr %4, align 8
  call void @_ZNSt16allocator_traitsISaISt10_List_nodeI10FileFormatEEE37select_on_container_copy_constructionERKS3_(ptr dead_on_unwind writable sret(%"class.std::allocator.16") align 1 %0, ptr noundef nonnull align 1 dereferenceable(1) %5)
  ret void
}

; Function Attrs: mustprogress nounwind uwtable
define linkonce_odr noundef nonnull align 1 dereferenceable(1) ptr @_ZNKSt7__cxx1110_List_baseI10FileFormatSaIS1_EE21_M_get_Node_allocatorEv(ptr noundef nonnull align 8 dereferenceable(24) %0) #4 comdat align 2 {
  %2 = alloca ptr, align 8
  store ptr %0, ptr %2, align 8
  %3 = load ptr, ptr %2, align 8
  %4 = getelementptr inbounds %"class.std::__cxx11::_List_base", ptr %3, i32 0, i32 0
  ret ptr %4
}

; Function Attrs: mustprogress uwtable
define linkonce_odr void @_ZNSt7__cxx114listI10FileFormatSaIS1_EEC2ERKS3_(ptr noundef nonnull align 8 dereferenceable(24) %0, ptr noundef nonnull align 8 dereferenceable(24) %1) unnamed_addr #5 comdat align 2 personality ptr @__gxx_personality_v0 {
  %3 = alloca ptr, align 8
  %4 = alloca ptr, align 8
  %5 = alloca %"class.std::allocator.16", align 1
  %6 = alloca %"struct.std::_List_const_iterator", align 8
  %7 = alloca %"struct.std::_List_const_iterator", align 8
  %8 = alloca ptr, align 8
  %9 = alloca i32, align 4
  store ptr %0, ptr %3, align 8
  store ptr %1, ptr %4, align 8
  %10 = load ptr, ptr %3, align 8
  %11 = load ptr, ptr %4, align 8
  %12 = call noundef nonnull align 1 dereferenceable(1) ptr @_ZNKSt7__cxx1110_List_baseI10FileFormatSaIS1_EE21_M_get_Node_allocatorEv(ptr noundef nonnull align 8 dereferenceable(24) %11) #3
  call void @_ZN9__gnu_cxx14__alloc_traitsISaISt10_List_nodeI10FileFormatEES3_E17_S_select_on_copyERKS4_(ptr dead_on_unwind writable sret(%"class.std::allocator.16") align 1 %5, ptr noundef nonnull align 1 dereferenceable(1) %12)
  call void @_ZNSt7__cxx1110_List_baseI10FileFormatSaIS1_EEC2EOSaISt10_List_nodeIS1_EE(ptr noundef nonnull align 8 dereferenceable(24) %10, ptr noundef nonnull align 1 dereferenceable(1) %5)
  call void @_ZNSaISt10_List_nodeI10FileFormatEED2Ev(ptr noundef nonnull align 1 dereferenceable(1) %5) #3
  %13 = load ptr, ptr %4, align 8
  %14 = call ptr @_ZNKSt7__cxx114listI10FileFormatSaIS1_EE5beginEv(ptr noundef nonnull align 8 dereferenceable(24) %13) #3
  %15 = getelementptr inbounds %"struct.std::_List_const_iterator", ptr %6, i32 0, i32 0
  store ptr %14, ptr %15, align 8
  %16 = load ptr, ptr %4, align 8
  %17 = call ptr @_ZNKSt7__cxx114listI10FileFormatSaIS1_EE3endEv(ptr noundef nonnull align 8 dereferenceable(24) %16) #3
  %18 = getelementptr inbounds %"struct.std::_List_const_iterator", ptr %7, i32 0, i32 0
  store ptr %17, ptr %18, align 8
  %19 = getelementptr inbounds %"struct.std::_List_const_iterator", ptr %6, i32 0, i32 0
  %20 = load ptr, ptr %19, align 8
  %21 = getelementptr inbounds %"struct.std::_List_const_iterator", ptr %7, i32 0, i32 0
  %22 = load ptr, ptr %21, align 8
  invoke void @_ZNSt7__cxx114listI10FileFormatSaIS1_EE22_M_initialize_dispatchISt20_List_const_iteratorIS1_EEEvT_S7_St12__false_type(ptr noundef nonnull align 8 dereferenceable(24) %10, ptr %20, ptr %22)
          to label %23 unwind label %24

23:                                               ; preds = %2
  ret void

24:                                               ; preds = %2
  %25 = landingpad { ptr, i32 }
          cleanup
  %26 = extractvalue { ptr, i32 } %25, 0
  store ptr %26, ptr %8, align 8
  %27 = extractvalue { ptr, i32 } %25, 1
  store i32 %27, ptr %9, align 4
  call void @_ZNSt7__cxx1110_List_baseI10FileFormatSaIS1_EED2Ev(ptr noundef nonnull align 8 dereferenceable(24) %10) #3
  br label %28

28:                                               ; preds = %24
  %29 = load ptr, ptr %8, align 8
  %30 = load i32, ptr %9, align 4
  %31 = insertvalue { ptr, i32 } poison, ptr %29, 0
  %32 = insertvalue { ptr, i32 } %31, i32 %30, 1
  resume { ptr, i32 } %32
}

; Function Attrs: mustprogress uwtable
define void @_ZNK16BaseMeshIOPlugin18exportImageFormatsB5cxx11Ev(ptr dead_on_unwind noalias writable sret(%"class.std::__cxx11::list") align 8 %0, ptr noundef nonnull align 8 dereferenceable(32) %1) unnamed_addr #5 align 2 {
  %3 = alloca ptr, align 8
  %4 = alloca ptr, align 8
  store ptr %0, ptr %3, align 8
  store ptr %1, ptr %4, align 8
  call void @_ZNSt7__cxx114listI10FileFormatSaIS1_EEC2ERKS3_(ptr noundef nonnull align 8 dereferenceable(24) %0, ptr noundef nonnull align 8 dereferenceable(24) @_ZL21exportImageFormatListB5cxx11)
  ret void
}

; Function Attrs: uwtable
define void @_ZThn16_NK16BaseMeshIOPlugin18exportImageFormatsB5cxx11Ev(ptr dead_on_unwind noalias writable sret(%"class.std::__cxx11::list") align 8 %0, ptr noundef %1) unnamed_addr #0 align 2 {
  %3 = alloca ptr, align 8
  %4 = alloca ptr, align 8
  store ptr %0, ptr %3, align 8
  store ptr %1, ptr %4, align 8
  %5 = load ptr, ptr %4, align 8
  %6 = getelementptr inbounds i8, ptr %5, i64 -16
  tail call void @_ZNK16BaseMeshIOPlugin18exportImageFormatsB5cxx11Ev(ptr dead_on_unwind writable sret(%"class.std::__cxx11::list") align 8 %0, ptr noundef nonnull align 8 dereferenceable(32) %6)
  ret void
}